target datalayout = "e-m:e-p270:32:32-p271:32:32-p272:64:64-i64:64-i128:128-f80:128-n8:16:32:64-S128"
target triple = "x86_64-pc-linux-gnu"

@.str = private unnamed_addr constant [2 x i8] c" \00", align 1
@.str.98 = private unnamed_addr constant [51 x i8] c"%sData type: PMIX_PROC_RANK\09Value: PMIX_RANK_UNDEF\00", align 1
@.str.99 = private unnamed_addr constant [54 x i8] c"%sData type: PMIX_PROC_RANK\09Value: PMIX_RANK_WILDCARD\00", align 1
@.str.100 = private unnamed_addr constant [56 x i8] c"%sData type: PMIX_PROC_RANK\09Value: PMIX_RANK_LOCAL_NODE\00", align 1
@.str.101 = private unnamed_addr constant [39 x i8] c"%sData type: PMIX_PROC_RANK\09Value: %lu\00", align 1

; Function Attrs: nounwind uwtable
define i32 @pmix20_bfrop_print_rank(ptr noundef %0, ptr noundef %1, ptr noundef %2, i16 noundef zeroext %3) #0 {
  %5 = alloca i32, align 4
  %6 = alloca ptr, align 8
  %7 = alloca ptr, align 8
  %8 = alloca ptr, align 8
  %9 = alloca i16, align 2
  %10 = alloca ptr, align 8
  %11 = alloca i32, align 4
  %12 = alloca i32, align 4
  store ptr %0, ptr %6, align 8, !tbaa !3
  store ptr %1, ptr %7, align 8, !tbaa !8
  store ptr %2, ptr %8, align 8, !tbaa !36
  store i16 %3, ptr %9, align 2, !tbaa !11
  call void @llvm.lifetime.start.p0(i64 8, ptr %10) #7
  call void @llvm.lifetime.start.p0(i64 4, ptr %11) #7
  %13 = load ptr, ptr %7, align 8, !tbaa !8
  %14 = icmp eq ptr null, %13
  br i1 %14, label %15, label %20

15:                                               ; preds = %4
  %16 = call i32 (ptr, ptr, ...) @asprintf(ptr noundef %10, ptr noundef @.str) #7
  %17 = icmp sgt i32 0, %16
  br i1 %17, label %18, label %19

18:                                               ; preds = %15
  store i32 -32, ptr %5, align 4
  store i32 1, ptr %12, align 4
  br label %55

19:                                               ; preds = %15
  br label %22

20:                                               ; preds = %4
  %21 = load ptr, ptr %7, align 8, !tbaa !8
  store ptr %21, ptr %10, align 8, !tbaa !8
  br label %22

22:                                               ; preds = %20, %19
  %23 = load ptr, ptr %8, align 8, !tbaa !36
  %24 = load i32, ptr %23, align 4, !tbaa !21
  switch i32 %24, label %37 [
    i32 -1, label %25
    i32 -2, label %29
    i32 -3, label %33
  ]

25:                                               ; preds = %22
  %26 = load ptr, ptr %6, align 8, !tbaa !3
  %27 = load ptr, ptr %10, align 8, !tbaa !8
  %28 = call i32 (ptr, ptr, ...) @asprintf(ptr noundef %26, ptr noundef @.str.98, ptr noundef %27) #7
  store i32 %28, ptr %11, align 4, !tbaa !21
  br label %44

29:                                               ; preds = %22
  %30 = load ptr, ptr %6, align 8, !tbaa !3
  %31 = load ptr, ptr %10, align 8, !tbaa !8
  %32 = call i32 (ptr, ptr, ...) @asprintf(ptr noundef %30, ptr noundef @.str.99, ptr noundef %31) #7
  store i32 %32, ptr %11, align 4, !tbaa !21
  br label %44

33:                                               ; preds = %22
  %34 = load ptr, ptr %6, align 8, !tbaa !3
  %35 = load ptr, ptr %10, align 8, !tbaa !8
  %36 = call i32 (ptr, ptr, ...) @asprintf(ptr noundef %34, ptr noundef @.str.100, ptr noundef %35) #7
  store i32 %36, ptr %11, align 4, !tbaa !21
  br label %44

37:                                               ; preds = %22
  %38 = load ptr, ptr %6, align 8, !tbaa !3
  %39 = load ptr, ptr %10, align 8, !tbaa !8
  %40 = load ptr, ptr %8, align 8, !tbaa !36
  %41 = load i32, ptr %40, align 4, !tbaa !21
  %42 = zext i32 %41 to i64
  %43 = call i32 (ptr, ptr, ...) @asprintf(ptr noundef %38, ptr noundef @.str.101, ptr noundef %39, i64 noundef %42) #7
  store i32 %43, ptr %11, align 4, !tbaa !21
  br label %44

44:                                               ; preds = %37, %33, %29, %25
  %45 = load ptr, ptr %10, align 8, !tbaa !8
  %46 = load ptr, ptr %7, align 8, !tbaa !8
  %47 = icmp ne ptr %45, %46
  br i1 %47, label %48, label %50

48:                                               ; preds = %44
  %49 = load ptr, ptr %10, align 8, !tbaa !8
  call void @free(ptr noundef %49) #7
  br label %50

50:                                               ; preds = %48, %44
  %51 = load i32, ptr %11, align 4, !tbaa !21
  %52 = icmp sgt i32 0, %51
  br i1 %52, label %53, label %54

53:                                               ; preds = %50
  store i32 -32, ptr %5, align 4
  store i32 1, ptr %12, align 4
  br label %55

54:                                               ; preds = %50
  store i32 0, ptr %5, align 4
  store i32 1, ptr %12, align 4
  br label %55

55:                                               ; preds = %54, %53, %18
  call void @llvm.lifetime.end.p0(i64 4, ptr %11) #7
  call void @llvm.lifetime.end.p0(i64 8, ptr %10) #7
  %56 = load i32, ptr %5, align 4
  ret i32 %56
}