; Function Attrs: nounwind uwtable
define range(i32 -32, 1) i32 @pmix20_bfrop_print_rank(ptr noundef %0, ptr noundef %1, ptr noundef readonly captures(none) %2, i16 noundef zeroext %3) local_unnamed_addr #0 {
  %5 = alloca ptr, align 8
  call void @llvm.lifetime.start.p0(i64 8, ptr nonnull %5) #7
  %6 = icmp eq ptr %1, null
  br i1 %6, label %7, label %10

7:                                                ; preds = %4
  %8 = call i32 (ptr, ptr, ...) @asprintf(ptr noundef nonnull %5, ptr noundef nonnull @.str) #7
  %9 = icmp slt i32 %8, 0
  br i1 %9, label %28, label %11

10:                                               ; preds = %4
  store ptr %1, ptr %5, align 8, !tbaa !20
  br label %11

11:                                               ; preds = %7, %10
  %12 = load i32, ptr %2, align 4, !tbaa !28
  %13 = load ptr, ptr %5, align 8, !tbaa !20
  switch i32 %12, label %20 [
    i32 -1, label %14
    i32 -2, label %16
    i32 -3, label %18
  ]

14:                                               ; preds = %11
  %15 = call i32 (ptr, ptr, ...) @asprintf(ptr noundef %0, ptr noundef nonnull @.str.98, ptr noundef %13) #7
  br label %23

16:                                               ; preds = %11
  %17 = call i32 (ptr, ptr, ...) @asprintf(ptr noundef %0, ptr noundef nonnull @.str.99, ptr noundef %13) #7
  br label %23

18:                                               ; preds = %11
  %19 = call i32 (ptr, ptr, ...) @asprintf(ptr noundef %0, ptr noundef nonnull @.str.100, ptr noundef %13) #7
  br label %23

20:                                               ; preds = %11
  %21 = zext i32 %12 to i64
  %22 = call i32 (ptr, ptr, ...) @asprintf(ptr noundef %0, ptr noundef nonnull @.str.101, ptr noundef %13, i64 noundef %21) #7
  br label %23

23:                                               ; preds = %20, %18, %16, %14
  %.0 = phi i32 [ %22, %20 ], [ %19, %18 ], [ %17, %16 ], [ %15, %14 ]
  %24 = load ptr, ptr %5, align 8, !tbaa !20
  %.not = icmp eq ptr %24, %1
  br i1 %.not, label %26, label %25

25:                                               ; preds = %23
  call void @free(ptr noundef %24) #7
  br label %26

26:                                               ; preds = %25, %23
  %27 = icmp slt i32 %.0, 0
  %. = select i1 %27, i32 -32, i32 0
  br label %28

28:                                               ; preds = %26, %7
  %.010 = phi i32 [ -32, %7 ], [ %., %26 ]
  call void @llvm.lifetime.end.p0(i64 8, ptr nonnull %5) #7
  ret i32 %.010
}